; Function Attrs: mustprogress uwtable
define void @_ZN2cv4gapi7resizePERKNS_5GMatPERKNS_5Size_IiEEi(ptr dead_on_unwind noalias writable sret(%"class.cv::GMatP") align 8 %0, ptr nocapture noundef nonnull readonly align 8 dereferenceable(16) %1, ptr nocapture noundef nonnull readonly align 4 dereferenceable(8) %2, i32 noundef %3) local_unnamed_addr #3 personality ptr @__gxx_personality_v0 {
  %5 = alloca %"class.cv::GMatP", align 8
  %6 = load ptr, ptr %1, align 8
  store ptr %6, ptr %5, align 8
  %7 = getelementptr inbounds i8, ptr %5, i64 8
  %8 = getelementptr inbounds i8, ptr %1, i64 8
  %9 = load ptr, ptr %8, align 8
  store ptr %9, ptr %7, align 8
  %.not.i.i.i.i.i = icmp eq ptr %9, null
  br i1 %.not.i.i.i.i.i, label %_ZN2cv5GMatPC2ERKS0_.exit, label %10

10:                                               ; preds = %4
  %11 = getelementptr inbounds i8, ptr %9, i64 8
  %12 = load i8, ptr @__libc_single_threaded, align 1
  %.not.i.i.i.i.i.i = icmp eq i8 %12, 0
  br i1 %.not.i.i.i.i.i.i, label %16, label %13

13:                                               ; preds = %10
  %14 = load i32, ptr %11, align 4
  %15 = add nsw i32 %14, 1
  store i32 %15, ptr %11, align 4
  br label %_ZN2cv5GMatPC2ERKS0_.exit

16:                                               ; preds = %10
  %17 = atomicrmw volatile add ptr %11, i32 1 acq_rel, align 4
  br label %_ZN2cv5GMatPC2ERKS0_.exit

_ZN2cv5GMatPC2ERKS0_.exit:                        ; preds = %4, %13, %16
  %.sroa.0.0.copyload = load i64, ptr %2, align 4
  invoke void @_ZN2cv11GKernelTypeINS_4gapi7imgproc8GResizePESt8functionIFNS_5GMatPES5_NS_5Size_IiEEiEEE2onES5_S7_i(ptr dead_on_unwind writable sret(%"class.cv::GMatP") align 8 %0, ptr noundef nonnull %5, i64 %.sroa.0.0.copyload, i32 noundef %3)
          to label %18 unwind label %54

18:                                               ; preds = %_ZN2cv5GMatPC2ERKS0_.exit
  %19 = load ptr, ptr %7, align 8
  %.not.i.i.i.i.i4 = icmp eq ptr %19, null
  br i1 %.not.i.i.i.i.i4, label %_ZN2cv5GMatPD2Ev.exit, label %20

20:                                               ; preds = %18
  %21 = getelementptr inbounds i8, ptr %19, i64 8
  %22 = load atomic i64, ptr %21 acquire, align 8
  %23 = icmp eq i64 %22, 4294967297
  %24 = trunc i64 %22 to i32
  br i1 %23, label %25, label %30

25:                                               ; preds = %20
  store i32 0, ptr %21, align 8
  %26 = getelementptr inbounds i8, ptr %19, i64 12
  store i32 0, ptr %26, align 4
  %27 = load ptr, ptr %19, align 8
  %28 = getelementptr inbounds i8, ptr %27, i64 16
  %29 = load ptr, ptr %28, align 8
  call void %29(ptr noundef nonnull align 8 dereferenceable(16) %19) #18
  br label %_ZNSt16_Sp_counted_baseILN9__gnu_cxx12_Lock_policyE2EE24_M_release_last_use_coldEv.exit.sink.split.i.i.i.i.i.i

30:                                               ; preds = %20
  %31 = load i8, ptr @__libc_single_threaded, align 1
  %.not.i.i.i.i.i.i5 = icmp eq i8 %31, 0
  br i1 %.not.i.i.i.i.i.i5, label %34, label %32

32:                                               ; preds = %30
  %33 = add nsw i32 %24, -1
  store i32 %33, ptr %21, align 4
  br label %36

34:                                               ; preds = %30
  %35 = atomicrmw volatile add ptr %21, i32 -1 acq_rel, align 4
  br label %36

36:                                               ; preds = %34, %32
  %.0.i.i.i.i.i.i = phi i32 [ %24, %32 ], [ %35, %34 ]
  %37 = icmp eq i32 %.0.i.i.i.i.i.i, 1
  br i1 %37, label %38, label %_ZN2cv5GMatPD2Ev.exit

38:                                               ; preds = %36
  %39 = load ptr, ptr %19, align 8
  %40 = getelementptr inbounds i8, ptr %39, i64 16
  %41 = load ptr, ptr %40, align 8
  call void %41(ptr noundef nonnull align 8 dereferenceable(16) %19) #18
  %42 = getelementptr inbounds i8, ptr %19, i64 12
  %43 = load i8, ptr @__libc_single_threaded, align 1
  %.not.i.i.i.i.i.i.i.i = icmp eq i8 %43, 0
  br i1 %.not.i.i.i.i.i.i.i.i, label %47, label %44

44:                                               ; preds = %38
  %45 = load i32, ptr %42, align 4
  %46 = add nsw i32 %45, -1
  store i32 %46, ptr %42, align 4
  br label %49

47:                                               ; preds = %38
  %48 = atomicrmw volatile add ptr %42, i32 -1 acq_rel, align 4
  br label %49

49:                                               ; preds = %47, %44
  %.0.i.i.i.i.i.i.i.i = phi i32 [ %45, %44 ], [ %48, %47 ]
  %50 = icmp eq i32 %.0.i.i.i.i.i.i.i.i, 1
  br i1 %50, label %_ZNSt16_Sp_counted_baseILN9__gnu_cxx12_Lock_policyE2EE24_M_release_last_use_coldEv.exit.sink.split.i.i.i.i.i.i, label %_ZN2cv5GMatPD2Ev.exit

_ZNSt16_Sp_counted_baseILN9__gnu_cxx12_Lock_policyE2EE24_M_release_last_use_coldEv.exit.sink.split.i.i.i.i.i.i: ; preds = %49, %25
  %51 = load ptr, ptr %19, align 8
  %52 = getelementptr inbounds i8, ptr %51, i64 24
  %53 = load ptr, ptr %52, align 8
  call void %53(ptr noundef nonnull align 8 dereferenceable(16) %19) #18
  br label %_ZN2cv5GMatPD2Ev.exit

_ZN2cv5GMatPD2Ev.exit:                            ; preds = %18, %36, %49, %_ZNSt16_Sp_counted_baseILN9__gnu_cxx12_Lock_policyE2EE24_M_release_last_use_coldEv.exit.sink.split.i.i.i.i.i.i
  ret void

54:                                               ; preds = %_ZN2cv5GMatPC2ERKS0_.exit
  %55 = landingpad { ptr, i32 }
          cleanup
  call void @_ZN2cv5GMatPD2Ev(ptr noundef nonnull align 8 dereferenceable(16) %5) #18
  resume { ptr, i32 } %55
}